target datalayout = "e-m:e-p270:32:32-p271:32:32-p272:64:64-i64:64-i128:128-f80:128-n8:16:32:64-S128"
target triple = "x86_64-pc-linux-gnu"

%struct.slurm_selected_step_t = type { ptr, i32, i32, %struct.slurm_step_id_msg }
%struct.slurm_step_id_msg = type { i64, i32, i32, i32 }

@.str = private unnamed_addr constant [22 x i8] c"slurm_protocol_defs.c\00", align 1
@__func__.slurm_parse_step_str = private unnamed_addr constant [21 x i8] c"slurm_parse_step_str\00", align 1
@.str.9 = private unnamed_addr constant [2 x i8] c".\00", align 1
@.str.10 = private unnamed_addr constant [6 x i8] c"batch\00", align 1
@.str.11 = private unnamed_addr constant [7 x i8] c"extern\00", align 1
@.str.12 = private unnamed_addr constant [12 x i8] c"interactive\00", align 1
@.str.13 = private unnamed_addr constant [4 x i8] c"TBD\00", align 1
@.str.14 = private unnamed_addr constant [23 x i8] c"Bad step specified: %s\00", align 1
@.str.15 = private unnamed_addr constant [21 x i8] c"No jobstep requested\00", align 1
@.str.16 = private unnamed_addr constant [2 x i8] c"_\00", align 1
@.str.17 = private unnamed_addr constant [36 x i8] c"Bad job array element specified: %s\00", align 1
@.str.18 = private unnamed_addr constant [2 x i8] c"+\00", align 1
@.str.19 = private unnamed_addr constant [32 x i8] c"Bad hetjob offset specified: %s\00", align 1
@.str.20 = private unnamed_addr constant [32 x i8] c"No jobarray or hetjob requested\00", align 1

; Function Attrs: inlinehint nounwind willreturn memory(read) uwtable
define available_externally i32 @atoi(ptr noundef nonnull %0) #8 {
  %2 = alloca ptr, align 8
  store ptr %0, ptr %2, align 8
  %3 = load ptr, ptr %2, align 8
  %4 = call i64 @strtol(ptr noundef %3, ptr noundef null, i32 noundef 10) #11
  %5 = trunc i64 %4 to i32
  ret i32 %5
}

; Function Attrs: nounwind uwtable
define dso_local ptr @slurm_parse_step_str(ptr noundef %0) #0 {
  %2 = alloca ptr, align 8
  %3 = alloca ptr, align 8
  %4 = alloca ptr, align 8
  %5 = alloca ptr, align 8
  %6 = alloca ptr, align 8
  store ptr %0, ptr %2, align 8
  call void @llvm.lifetime.start.p0(i64 8, ptr %3) #11
  call void @llvm.lifetime.start.p0(i64 8, ptr %4) #11
  call void @llvm.lifetime.start.p0(i64 8, ptr %5) #11
  store ptr null, ptr %5, align 8
  call void @llvm.lifetime.start.p0(i64 8, ptr %6) #11
  %7 = call ptr @slurm_xcalloc(i64 noundef 1, i64 noundef 40, i1 noundef zeroext true, i1 noundef zeroext false, ptr noundef @.str, i32 noundef 1198, ptr noundef @__func__.slurm_parse_step_str)
  store ptr %7, ptr %3, align 8
  %8 = load ptr, ptr %3, align 8
  %9 = getelementptr inbounds nuw %struct.slurm_selected_step_t, ptr %8, i32 0, i32 3
  %10 = getelementptr inbounds nuw %struct.slurm_step_id_msg, ptr %9, i32 0, i32 2
  store i32 -2, ptr %10, align 4
  %11 = load ptr, ptr %2, align 8
  %12 = call ptr @xstrstr(ptr noundef %11, ptr noundef @.str.9)
  store ptr %12, ptr %4, align 8
  %13 = icmp ne ptr %12, null
  br i1 %13, label %14, label %87

14:                                               ; preds = %1
  %15 = load ptr, ptr %4, align 8
  %16 = getelementptr inbounds nuw i8, ptr %15, i32 1
  store ptr %16, ptr %4, align 8
  store i8 0, ptr %15, align 1
  %17 = load ptr, ptr %4, align 8
  %18 = call i32 @xstrcmp(ptr noundef %17, ptr noundef @.str.10)
  %19 = icmp ne i32 %18, 0
  br i1 %19, label %24, label %20

20:                                               ; preds = %14
  %21 = load ptr, ptr %3, align 8
  %22 = getelementptr inbounds nuw %struct.slurm_selected_step_t, ptr %21, i32 0, i32 3
  %23 = getelementptr inbounds nuw %struct.slurm_step_id_msg, ptr %22, i32 0, i32 3
  store i32 -5, ptr %23, align 8
  br label %72

24:                                               ; preds = %14
  %25 = load ptr, ptr %4, align 8
  %26 = call i32 @xstrcmp(ptr noundef %25, ptr noundef @.str.11)
  %27 = icmp ne i32 %26, 0
  br i1 %27, label %32, label %28

28:                                               ; preds = %24
  %29 = load ptr, ptr %3, align 8
  %30 = getelementptr inbounds nuw %struct.slurm_selected_step_t, ptr %29, i32 0, i32 3
  %31 = getelementptr inbounds nuw %struct.slurm_step_id_msg, ptr %30, i32 0, i32 3
  store i32 -4, ptr %31, align 8
  br label %71

32:                                               ; preds = %24
  %33 = load ptr, ptr %4, align 8
  %34 = call i32 @xstrcmp(ptr noundef %33, ptr noundef @.str.12)
  %35 = icmp ne i32 %34, 0
  br i1 %35, label %40, label %36

36:                                               ; preds = %32
  %37 = load ptr, ptr %3, align 8
  %38 = getelementptr inbounds nuw %struct.slurm_selected_step_t, ptr %37, i32 0, i32 3
  %39 = getelementptr inbounds nuw %struct.slurm_step_id_msg, ptr %38, i32 0, i32 3
  store i32 -6, ptr %39, align 8
  br label %70

40:                                               ; preds = %32
  %41 = load ptr, ptr %4, align 8
  %42 = call i32 @xstrcmp(ptr noundef %41, ptr noundef @.str.13)
  %43 = icmp ne i32 %42, 0
  br i1 %43, label %48, label %44

44:                                               ; preds = %40
  %45 = load ptr, ptr %3, align 8
  %46 = getelementptr inbounds nuw %struct.slurm_selected_step_t, ptr %45, i32 0, i32 3
  %47 = getelementptr inbounds nuw %struct.slurm_step_id_msg, ptr %46, i32 0, i32 3
  store i32 -3, ptr %47, align 8
  br label %69

48:                                               ; preds = %40
  %49 = call ptr @__ctype_b_loc() #13
  %50 = load ptr, ptr %49, align 8
  %51 = load ptr, ptr %4, align 8
  %52 = load i8, ptr %51, align 1
  %53 = sext i8 %52 to i32
  %54 = sext i32 %53 to i64
  %55 = getelementptr inbounds i16, ptr %50, i64 %54
  %56 = load i16, ptr %55, align 2
  %57 = zext i16 %56 to i32
  %58 = and i32 %57, 2048
  %59 = icmp ne i32 %58, 0
  br i1 %59, label %60, label %66

60:                                               ; preds = %48
  %61 = load ptr, ptr %4, align 8
  %62 = call i32 @atoi(ptr noundef %61) #12
  %63 = load ptr, ptr %3, align 8
  %64 = getelementptr inbounds nuw %struct.slurm_selected_step_t, ptr %63, i32 0, i32 3
  %65 = getelementptr inbounds nuw %struct.slurm_step_id_msg, ptr %64, i32 0, i32 3
  store i32 %62, ptr %65, align 8
  br label %68

66:                                               ; preds = %48
  %67 = load ptr, ptr %2, align 8
  call void (ptr, ...) @fatal(ptr noundef @.str.14, ptr noundef %67) #14
  unreachable

68:                                               ; preds = %60
  br label %69

69:                                               ; preds = %68, %44
  br label %70

70:                                               ; preds = %69, %36
  br label %71

71:                                               ; preds = %70, %28
  br label %72

72:                                               ; preds = %71, %20
  %73 = load ptr, ptr %4, align 8
  %74 = call ptr @xstrchr(ptr noundef %73, i32 noundef 43)
  store ptr %74, ptr %5, align 8
  %75 = load ptr, ptr %5, align 8
  %76 = icmp ne ptr %75, null
  br i1 %76, label %77, label %86

77:                                               ; preds = %72
  %78 = load ptr, ptr %5, align 8
  %79 = getelementptr inbounds nuw i8, ptr %78, i32 1
  store ptr %79, ptr %5, align 8
  %80 = load ptr, ptr %5, align 8
  %81 = call i64 @strtoul(ptr noundef %80, ptr noundef null, i32 noundef 10) #11
  %82 = trunc i64 %81 to i32
  %83 = load ptr, ptr %3, align 8
  %84 = getelementptr inbounds nuw %struct.slurm_selected_step_t, ptr %83, i32 0, i32 3
  %85 = getelementptr inbounds nuw %struct.slurm_step_id_msg, ptr %84, i32 0, i32 2
  store i32 %82, ptr %85, align 4
  br label %86

86:                                               ; preds = %77, %72
  br label %101

87:                                               ; preds = %1
  br label %88

88:                                               ; preds = %87
  br label %89

89:                                               ; preds = %88
  %90 = call i32 @get_log_level()
  %91 = icmp sge i32 %90, 6
  br i1 %91, label %92, label %93

92:                                               ; preds = %89
  call void (i32, ptr, ...) @log_var(i32 noundef 6, ptr noundef @.str.15)
  br label %93

93:                                               ; preds = %92, %89
  br label %94

94:                                               ; preds = %93
  br label %95

95:                                               ; preds = %94
  br label %96

96:                                               ; preds = %95
  br label %97

97:                                               ; preds = %96
  %98 = load ptr, ptr %3, align 8
  %99 = getelementptr inbounds nuw %struct.slurm_selected_step_t, ptr %98, i32 0, i32 3
  %100 = getelementptr inbounds nuw %struct.slurm_step_id_msg, ptr %99, i32 0, i32 3
  store i32 -2, ptr %100, align 8
  br label %101

101:                                              ; preds = %97, %86
  %102 = load ptr, ptr %2, align 8
  %103 = call ptr @xstrstr(ptr noundef %102, ptr noundef @.str.16)
  store ptr %103, ptr %6, align 8
  %104 = icmp ne ptr %103, null
  br i1 %104, label %105, label %129

105:                                              ; preds = %101
  %106 = load ptr, ptr %6, align 8
  %107 = getelementptr inbounds nuw i8, ptr %106, i32 1
  store ptr %107, ptr %6, align 8
  store i8 0, ptr %106, align 1
  %108 = call ptr @__ctype_b_loc() #13
  %109 = load ptr, ptr %108, align 8
  %110 = load ptr, ptr %6, align 8
  %111 = load i8, ptr %110, align 1
  %112 = sext i8 %111 to i32
  %113 = sext i32 %112 to i64
  %114 = getelementptr inbounds i16, ptr %109, i64 %113
  %115 = load i16, ptr %114, align 2
  %116 = zext i16 %115 to i32
  %117 = and i32 %116, 2048
  %118 = icmp ne i32 %117, 0
  br i1 %118, label %119, label %124

119:                                              ; preds = %105
  %120 = load ptr, ptr %6, align 8
  %121 = call i32 @atoi(ptr noundef %120) #12
  %122 = load ptr, ptr %3, align 8
  %123 = getelementptr inbounds nuw %struct.slurm_selected_step_t, ptr %122, i32 0, i32 1
  store i32 %121, ptr %123, align 8
  br label %126

124:                                              ; preds = %105
  %125 = load ptr, ptr %2, align 8
  call void (ptr, ...) @fatal(ptr noundef @.str.17, ptr noundef %125) #14
  unreachable

126:                                              ; preds = %119
  %127 = load ptr, ptr %3, align 8
  %128 = getelementptr inbounds nuw %struct.slurm_selected_step_t, ptr %127, i32 0, i32 2
  store i32 -2, ptr %128, align 4
  br label %176

129:                                              ; preds = %101
  %130 = load ptr, ptr %5, align 8
  %131 = icmp ne ptr %130, null
  br i1 %131, label %160, label %132

132:                                              ; preds = %129
  %133 = load ptr, ptr %2, align 8
  %134 = call ptr @xstrstr(ptr noundef %133, ptr noundef @.str.18)
  store ptr %134, ptr %5, align 8
  %135 = icmp ne ptr %134, null
  br i1 %135, label %136, label %160

136:                                              ; preds = %132
  %137 = load ptr, ptr %3, align 8
  %138 = getelementptr inbounds nuw %struct.slurm_selected_step_t, ptr %137, i32 0, i32 1
  store i32 -2, ptr %138, align 8
  %139 = load ptr, ptr %5, align 8
  %140 = getelementptr inbounds nuw i8, ptr %139, i32 1
  store ptr %140, ptr %5, align 8
  store i8 0, ptr %139, align 1
  %141 = call ptr @__ctype_b_loc() #13
  %142 = load ptr, ptr %141, align 8
  %143 = load ptr, ptr %5, align 8
  %144 = load i8, ptr %143, align 1
  %145 = sext i8 %144 to i32
  %146 = sext i32 %145 to i64
  %147 = getelementptr inbounds i16, ptr %142, i64 %146
  %148 = load i16, ptr %147, align 2
  %149 = zext i16 %148 to i32
  %150 = and i32 %149, 2048
  %151 = icmp ne i32 %150, 0
  br i1 %151, label %152, label %157

152:                                              ; preds = %136
  %153 = load ptr, ptr %5, align 8
  %154 = call i32 @atoi(ptr noundef %153) #12
  %155 = load ptr, ptr %3, align 8
  %156 = getelementptr inbounds nuw %struct.slurm_selected_step_t, ptr %155, i32 0, i32 2
  store i32 %154, ptr %156, align 4
  br label %159

157:                                              ; preds = %136
  %158 = load ptr, ptr %2, align 8
  call void (ptr, ...) @fatal(ptr noundef @.str.19, ptr noundef %158) #14
  unreachable

159:                                              ; preds = %152
  br label %175

160:                                              ; preds = %132, %129
  br label %161

161:                                              ; preds = %160
  br label %162

162:                                              ; preds = %161
  %163 = call i32 @get_log_level()
  %164 = icmp sge i32 %163, 6
  br i1 %164, label %165, label %166

165:                                              ; preds = %162
  call void (i32, ptr, ...) @log_var(i32 noundef 6, ptr noundef @.str.20)
  br label %166

166:                                              ; preds = %165, %162
  br label %167

167:                                              ; preds = %166
  br label %168

168:                                              ; preds = %167
  br label %169

169:                                              ; preds = %168
  br label %170

170:                                              ; preds = %169
  %171 = load ptr, ptr %3, align 8
  %172 = getelementptr inbounds nuw %struct.slurm_selected_step_t, ptr %171, i32 0, i32 1
  store i32 -2, ptr %172, align 8
  %173 = load ptr, ptr %3, align 8
  %174 = getelementptr inbounds nuw %struct.slurm_selected_step_t, ptr %173, i32 0, i32 2
  store i32 -2, ptr %174, align 4
  br label %175

175:                                              ; preds = %170, %159
  br label %176

176:                                              ; preds = %175, %126
  %177 = load ptr, ptr %2, align 8
  %178 = call i32 @atoi(ptr noundef %177) #12
  %179 = load ptr, ptr %3, align 8
  %180 = getelementptr inbounds nuw %struct.slurm_selected_step_t, ptr %179, i32 0, i32 3
  %181 = getelementptr inbounds nuw %struct.slurm_step_id_msg, ptr %180, i32 0, i32 1
  store i32 %178, ptr %181, align 8
  %182 = load ptr, ptr %3, align 8
  call void @llvm.lifetime.end.p0(i64 8, ptr %6) #11
  call void @llvm.lifetime.end.p0(i64 8, ptr %5) #11
  call void @llvm.lifetime.end.p0(i64 8, ptr %4) #11
  call void @llvm.lifetime.end.p0(i64 8, ptr %3) #11
  ret ptr %182
}