; Function Attrs: nounwind uwtable
define dso_local ptr @slurm_parse_step_str(ptr noundef %0) local_unnamed_addr #1 {
  %2 = tail call ptr @slurm_xcalloc(i64 noundef 1, i64 noundef 40, i1 noundef zeroext true, i1 noundef zeroext false, ptr noundef nonnull @.str, i32 noundef 1198, ptr noundef nonnull @__func__.slurm_parse_step_str) #24
  %3 = getelementptr inbounds nuw i8, ptr %2, i64 28
  store i32 -2, ptr %3, align 4
  %4 = tail call ptr @xstrstr(ptr noundef %0, ptr noundef nonnull @.str.9) #24
  %.not = icmp eq ptr %4, null
  br i1 %.not, label %29, label %5

5:                                                ; preds = %1
  %6 = getelementptr inbounds nuw i8, ptr %4, i64 1
  store i8 0, ptr %4, align 1
  %7 = tail call i32 @xstrcmp(ptr noundef nonnull %6, ptr noundef nonnull @.str.10) #24
  %.not45 = icmp eq i32 %7, 0
  br i1 %.not45, label %26, label %8

8:                                                ; preds = %5
  %9 = tail call i32 @xstrcmp(ptr noundef nonnull %6, ptr noundef nonnull @.str.11) #24
  %.not46 = icmp eq i32 %9, 0
  br i1 %.not46, label %26, label %10

10:                                               ; preds = %8
  %11 = tail call i32 @xstrcmp(ptr noundef nonnull %6, ptr noundef nonnull @.str.12) #24
  %.not47 = icmp eq i32 %11, 0
  br i1 %.not47, label %26, label %12

12:                                               ; preds = %10
  %13 = tail call i32 @xstrcmp(ptr noundef nonnull %6, ptr noundef nonnull @.str.13) #24
  %.not48 = icmp eq i32 %13, 0
  br i1 %.not48, label %26, label %14

14:                                               ; preds = %12
  %15 = tail call ptr @__ctype_b_loc() #26
  %16 = load ptr, ptr %15, align 8
  %17 = load i8, ptr %6, align 1
  %18 = sext i8 %17 to i64
  %19 = getelementptr inbounds i16, ptr %16, i64 %18
  %20 = load i16, ptr %19, align 2
  %21 = and i16 %20, 2048
  %.not49 = icmp eq i16 %21, 0
  br i1 %.not49, label %25, label %22

22:                                               ; preds = %14
  %23 = tail call i64 @strtol(ptr noundef nonnull captures(none) %6, ptr noundef null, i32 noundef 10) #24
  %24 = trunc i64 %23 to i32
  br label %26

25:                                               ; preds = %14
  tail call void (ptr, ...) @fatal(ptr noundef nonnull @.str.14, ptr noundef %0) #27
  unreachable

26:                                               ; preds = %12, %10, %8, %5, %22
  %.sink = phi i32 [ %24, %22 ], [ -5, %5 ], [ -4, %8 ], [ -6, %10 ], [ -3, %12 ]
  %27 = getelementptr inbounds nuw i8, ptr %2, i64 32
  store i32 %.sink, ptr %27, align 8
  %28 = tail call ptr @xstrchr(ptr noundef nonnull %6, i32 noundef 43) #24
  %.not50 = icmp eq ptr %28, null
  br i1 %.not50, label %35, label %.thread

29:                                               ; preds = %1
  %30 = tail call i32 @get_log_level() #24
  %31 = icmp sgt i32 %30, 5
  br i1 %31, label %32, label %33

32:                                               ; preds = %29
  tail call void (i32, ptr, ...) @log_var(i32 noundef 6, ptr noundef nonnull @.str.15) #24
  br label %33

33:                                               ; preds = %32, %29
  %34 = getelementptr inbounds nuw i8, ptr %2, i64 32
  store i32 -2, ptr %34, align 8
  br label %35

35:                                               ; preds = %26, %33
  %36 = tail call ptr @xstrstr(ptr noundef %0, ptr noundef nonnull @.str.16) #24
  %.not51 = icmp eq ptr %36, null
  br i1 %.not51, label %56, label %41

.thread:                                          ; preds = %26
  %37 = getelementptr inbounds nuw i8, ptr %28, i64 1
  %38 = tail call i64 @strtoul(ptr noundef nonnull captures(none) %37, ptr noundef null, i32 noundef 10) #24
  %39 = trunc i64 %38 to i32
  store i32 %39, ptr %3, align 4
  %40 = tail call ptr @xstrstr(ptr noundef %0, ptr noundef nonnull @.str.16) #24
  %.not5157 = icmp eq ptr %40, null
  br i1 %.not5157, label %.thread59, label %41

41:                                               ; preds = %.thread, %35
  %42 = phi ptr [ %40, %.thread ], [ %36, %35 ]
  %43 = getelementptr inbounds nuw i8, ptr %42, i64 1
  store i8 0, ptr %42, align 1
  %44 = tail call ptr @__ctype_b_loc() #26
  %45 = load ptr, ptr %44, align 8
  %46 = load i8, ptr %43, align 1
  %47 = sext i8 %46 to i64
  %48 = getelementptr inbounds i16, ptr %45, i64 %47
  %49 = load i16, ptr %48, align 2
  %50 = and i16 %49, 2048
  %.not55 = icmp eq i16 %50, 0
  br i1 %.not55, label %55, label %51

51:                                               ; preds = %41
  %52 = tail call i64 @strtol(ptr noundef nonnull captures(none) %43, ptr noundef null, i32 noundef 10) #24
  %53 = trunc i64 %52 to i32
  %54 = getelementptr inbounds nuw i8, ptr %2, i64 8
  store i32 %53, ptr %54, align 8
  br label %77

55:                                               ; preds = %41
  tail call void (ptr, ...) @fatal(ptr noundef nonnull @.str.17, ptr noundef %0) #27
  unreachable

56:                                               ; preds = %35
  %57 = tail call ptr @xstrstr(ptr noundef %0, ptr noundef nonnull @.str.18) #24
  %.not53 = icmp eq ptr %57, null
  br i1 %.not53, label %.thread59, label %58

58:                                               ; preds = %56
  %59 = getelementptr inbounds nuw i8, ptr %2, i64 8
  store i32 -2, ptr %59, align 8
  %60 = getelementptr inbounds nuw i8, ptr %57, i64 1
  store i8 0, ptr %57, align 1
  %61 = tail call ptr @__ctype_b_loc() #26
  %62 = load ptr, ptr %61, align 8
  %63 = load i8, ptr %60, align 1
  %64 = sext i8 %63 to i64
  %65 = getelementptr inbounds i16, ptr %62, i64 %64
  %66 = load i16, ptr %65, align 2
  %67 = and i16 %66, 2048
  %.not54 = icmp eq i16 %67, 0
  br i1 %.not54, label %71, label %68

68:                                               ; preds = %58
  %69 = tail call i64 @strtol(ptr noundef nonnull captures(none) %60, ptr noundef null, i32 noundef 10) #24
  %70 = trunc i64 %69 to i32
  br label %77

71:                                               ; preds = %58
  tail call void (ptr, ...) @fatal(ptr noundef nonnull @.str.19, ptr noundef %0) #27
  unreachable

.thread59:                                        ; preds = %.thread, %56
  %72 = tail call i32 @get_log_level() #24
  %73 = icmp sgt i32 %72, 5
  br i1 %73, label %74, label %75

74:                                               ; preds = %.thread59
  tail call void (i32, ptr, ...) @log_var(i32 noundef 6, ptr noundef nonnull @.str.20) #24
  br label %75

75:                                               ; preds = %74, %.thread59
  %76 = getelementptr inbounds nuw i8, ptr %2, i64 8
  store i32 -2, ptr %76, align 8
  br label %77

77:                                               ; preds = %68, %75, %51
  %.sink62 = phi i32 [ %70, %68 ], [ -2, %75 ], [ -2, %51 ]
  %78 = getelementptr inbounds nuw i8, ptr %2, i64 12
  store i32 %.sink62, ptr %78, align 4
  %79 = tail call i64 @strtol(ptr noundef nonnull captures(none) %0, ptr noundef null, i32 noundef 10) #24
  %80 = trunc i64 %79 to i32
  %81 = getelementptr inbounds nuw i8, ptr %2, i64 24
  store i32 %80, ptr %81, align 8
  ret ptr %2
}